target datalayout = "e-m:e-p270:32:32-p271:32:32-p272:64:64-i64:64-i128:128-f80:128-n8:16:32:64-S128"
target triple = "x86_64-pc-linux-gnu"

; Function Attrs: inlinehint nounwind uwtable
define internal i32 @Kit_TruthWordNum(i32 noundef %0) #2 {
  %2 = alloca i32, align 4
  store i32 %0, ptr %2, align 4, !tbaa !8
  %3 = load i32, ptr %2, align 4, !tbaa !8
  %4 = icmp sle i32 %3, 5
  br i1 %4, label %5, label %6

5:                                                ; preds = %1
  br label %10

6:                                                ; preds = %1
  %7 = load i32, ptr %2, align 4, !tbaa !8
  %8 = sub nsw i32 %7, 5
  %9 = shl i32 1, %8
  br label %10

10:                                               ; preds = %6, %5
  %11 = phi i32 [ 1, %5 ], [ %9, %6 ]
  ret i32 %11
}

; Function Attrs: inlinehint nounwind uwtable
define internal void @Kit_TruthCopy(ptr noundef %0, ptr noundef %1, i32 noundef %2) #2 {
  %4 = alloca ptr, align 8
  %5 = alloca ptr, align 8
  %6 = alloca i32, align 4
  %7 = alloca i32, align 4
  store ptr %0, ptr %4, align 8, !tbaa !3
  store ptr %1, ptr %5, align 8, !tbaa !3
  store i32 %2, ptr %6, align 4, !tbaa !8
  call void @llvm.lifetime.start.p0(i64 4, ptr %7) #8
  %8 = load i32, ptr %6, align 4, !tbaa !8
  %9 = call i32 @Kit_TruthWordNum(i32 noundef %8)
  %10 = sub nsw i32 %9, 1
  store i32 %10, ptr %7, align 4, !tbaa !8
  br label %11

11:                                               ; preds = %24, %3
  %12 = load i32, ptr %7, align 4, !tbaa !8
  %13 = icmp sge i32 %12, 0
  br i1 %13, label %14, label %27

14:                                               ; preds = %11
  %15 = load ptr, ptr %5, align 8, !tbaa !3
  %16 = load i32, ptr %7, align 4, !tbaa !8
  %17 = sext i32 %16 to i64
  %18 = getelementptr inbounds i32, ptr %15, i64 %17
  %19 = load i32, ptr %18, align 4, !tbaa !8
  %20 = load ptr, ptr %4, align 8, !tbaa !3
  %21 = load i32, ptr %7, align 4, !tbaa !8
  %22 = sext i32 %21 to i64
  %23 = getelementptr inbounds i32, ptr %20, i64 %22
  store i32 %19, ptr %23, align 4, !tbaa !8
  br label %24

24:                                               ; preds = %14
  %25 = load i32, ptr %7, align 4, !tbaa !8
  %26 = add nsw i32 %25, -1
  store i32 %26, ptr %7, align 4, !tbaa !8
  br label %11, !llvm.loop !30

27:                                               ; preds = %11
  call void @llvm.lifetime.end.p0(i64 4, ptr %7) #8
  ret void
}

; Function Attrs: nounwind uwtable
define void @Kit_TruthExistSet(ptr noundef %0, ptr noundef %1, i32 noundef %2, i32 noundef %3) #0 {
  %5 = alloca ptr, align 8
  %6 = alloca ptr, align 8
  %7 = alloca i32, align 4
  %8 = alloca i32, align 4
  %9 = alloca i32, align 4
  store ptr %0, ptr %5, align 8, !tbaa !3
  store ptr %1, ptr %6, align 8, !tbaa !3
  store i32 %2, ptr %7, align 4, !tbaa !8
  store i32 %3, ptr %8, align 4, !tbaa !8
  call void @llvm.lifetime.start.p0(i64 4, ptr %9) #8
  %10 = load ptr, ptr %5, align 8, !tbaa !3
  %11 = load ptr, ptr %6, align 8, !tbaa !3
  %12 = load i32, ptr %7, align 4, !tbaa !8
  call void @Kit_TruthCopy(ptr noundef %10, ptr noundef %11, i32 noundef %12)
  store i32 0, ptr %9, align 4, !tbaa !8
  br label %13

13:                                               ; preds = %28, %4
  %14 = load i32, ptr %9, align 4, !tbaa !8
  %15 = load i32, ptr %7, align 4, !tbaa !8
  %16 = icmp slt i32 %14, %15
  br i1 %16, label %17, label %31

17:                                               ; preds = %13
  %18 = load i32, ptr %8, align 4, !tbaa !8
  %19 = load i32, ptr %9, align 4, !tbaa !8
  %20 = shl i32 1, %19
  %21 = and i32 %18, %20
  %22 = icmp ne i32 %21, 0
  br i1 %22, label %23, label %27

23:                                               ; preds = %17
  %24 = load ptr, ptr %5, align 8, !tbaa !3
  %25 = load i32, ptr %7, align 4, !tbaa !8
  %26 = load i32, ptr %9, align 4, !tbaa !8
  call void @Kit_TruthExist(ptr noundef %24, i32 noundef %25, i32 noundef %26)
  br label %27

27:                                               ; preds = %23, %17
  br label %28

28:                                               ; preds = %27
  %29 = load i32, ptr %9, align 4, !tbaa !8
  %30 = add nsw i32 %29, 1
  store i32 %30, ptr %9, align 4, !tbaa !8
  br label %13, !llvm.loop !103

31:                                               ; preds = %13
  call void @llvm.lifetime.end.p0(i64 4, ptr %9) #8
  ret void
}